target datalayout = "e-m:e-p270:32:32-p271:32:32-p272:64:64-i64:64-i128:128-f80:128-n8:16:32:64-S128"
target triple = "x86_64-pc-linux-gnu"

; Function Attrs: nounwind uwtable
define dso_local i32 @lpStringToInt64(ptr noundef %0, i64 noundef %1, ptr noundef %2) #0 {
  %4 = alloca i32, align 4
  %5 = alloca ptr, align 8
  %6 = alloca i64, align 8
  %7 = alloca ptr, align 8
  %8 = alloca ptr, align 8
  %9 = alloca i64, align 8
  %10 = alloca i32, align 4
  %11 = alloca i64, align 8
  %12 = alloca i32, align 4
  store ptr %0, ptr %5, align 8, !tbaa !5
  store i64 %1, ptr %6, align 8, !tbaa !10
  store ptr %2, ptr %7, align 8, !tbaa !13
  call void @llvm.lifetime.start.p0(i64 8, ptr %8) #10
  %13 = load ptr, ptr %5, align 8, !tbaa !5
  store ptr %13, ptr %8, align 8, !tbaa !5
  call void @llvm.lifetime.start.p0(i64 8, ptr %9) #10
  store i64 0, ptr %9, align 8, !tbaa !10
  call void @llvm.lifetime.start.p0(i64 4, ptr %10) #10
  store i32 0, ptr %10, align 4, !tbaa !15
  call void @llvm.lifetime.start.p0(i64 8, ptr %11) #10
  %14 = load i64, ptr %6, align 8, !tbaa !10
  %15 = icmp eq i64 %14, 0
  br i1 %15, label %19, label %16

16:                                               ; preds = %3
  %17 = load i64, ptr %6, align 8, !tbaa !10
  %18 = icmp uge i64 %17, 21
  br i1 %18, label %19, label %20

19:                                               ; preds = %16, %3
  store i32 0, ptr %4, align 4
  store i32 1, ptr %12, align 4
  br label %156

20:                                               ; preds = %16
  %21 = load i64, ptr %6, align 8, !tbaa !10
  %22 = icmp eq i64 %21, 1
  br i1 %22, label %23, label %35

23:                                               ; preds = %20
  %24 = load ptr, ptr %8, align 8, !tbaa !5
  %25 = getelementptr inbounds i8, ptr %24, i64 0
  %26 = load i8, ptr %25, align 1, !tbaa !12
  %27 = sext i8 %26 to i32
  %28 = icmp eq i32 %27, 48
  br i1 %28, label %29, label %35

29:                                               ; preds = %23
  %30 = load ptr, ptr %7, align 8, !tbaa !13
  %31 = icmp ne ptr %30, null
  br i1 %31, label %32, label %34

32:                                               ; preds = %29
  %33 = load ptr, ptr %7, align 8, !tbaa !13
  store i64 0, ptr %33, align 8, !tbaa !10
  br label %34

34:                                               ; preds = %32, %29
  store i32 1, ptr %4, align 4
  store i32 1, ptr %12, align 4
  br label %156

35:                                               ; preds = %23, %20
  %36 = load ptr, ptr %8, align 8, !tbaa !5
  %37 = getelementptr inbounds i8, ptr %36, i64 0
  %38 = load i8, ptr %37, align 1, !tbaa !12
  %39 = sext i8 %38 to i32
  %40 = icmp eq i32 %39, 45
  br i1 %40, label %41, label %51

41:                                               ; preds = %35
  store i32 1, ptr %10, align 4, !tbaa !15
  %42 = load ptr, ptr %8, align 8, !tbaa !5
  %43 = getelementptr inbounds nuw i8, ptr %42, i32 1
  store ptr %43, ptr %8, align 8, !tbaa !5
  %44 = load i64, ptr %9, align 8, !tbaa !10
  %45 = add i64 %44, 1
  store i64 %45, ptr %9, align 8, !tbaa !10
  %46 = load i64, ptr %9, align 8, !tbaa !10
  %47 = load i64, ptr %6, align 8, !tbaa !10
  %48 = icmp eq i64 %46, %47
  br i1 %48, label %49, label %50

49:                                               ; preds = %41
  store i32 0, ptr %4, align 4
  store i32 1, ptr %12, align 4
  br label %156

50:                                               ; preds = %41
  br label %51

51:                                               ; preds = %50, %35
  %52 = load ptr, ptr %8, align 8, !tbaa !5
  %53 = getelementptr inbounds i8, ptr %52, i64 0
  %54 = load i8, ptr %53, align 1, !tbaa !12
  %55 = sext i8 %54 to i32
  %56 = icmp sge i32 %55, 49
  br i1 %56, label %57, label %74

57:                                               ; preds = %51
  %58 = load ptr, ptr %8, align 8, !tbaa !5
  %59 = getelementptr inbounds i8, ptr %58, i64 0
  %60 = load i8, ptr %59, align 1, !tbaa !12
  %61 = sext i8 %60 to i32
  %62 = icmp sle i32 %61, 57
  br i1 %62, label %63, label %74

63:                                               ; preds = %57
  %64 = load ptr, ptr %8, align 8, !tbaa !5
  %65 = getelementptr inbounds i8, ptr %64, i64 0
  %66 = load i8, ptr %65, align 1, !tbaa !12
  %67 = sext i8 %66 to i32
  %68 = sub nsw i32 %67, 48
  %69 = sext i32 %68 to i64
  store i64 %69, ptr %11, align 8, !tbaa !10
  %70 = load ptr, ptr %8, align 8, !tbaa !5
  %71 = getelementptr inbounds nuw i8, ptr %70, i32 1
  store ptr %71, ptr %8, align 8, !tbaa !5
  %72 = load i64, ptr %9, align 8, !tbaa !10
  %73 = add i64 %72, 1
  store i64 %73, ptr %9, align 8, !tbaa !10
  br label %75

74:                                               ; preds = %57, %51
  store i32 0, ptr %4, align 4
  store i32 1, ptr %12, align 4
  br label %156

75:                                               ; preds = %63
  br label %76

76:                                               ; preds = %111, %75
  %77 = load i64, ptr %9, align 8, !tbaa !10
  %78 = load i64, ptr %6, align 8, !tbaa !10
  %79 = icmp ult i64 %77, %78
  br i1 %79, label %80, label %92

80:                                               ; preds = %76
  %81 = load ptr, ptr %8, align 8, !tbaa !5
  %82 = getelementptr inbounds i8, ptr %81, i64 0
  %83 = load i8, ptr %82, align 1, !tbaa !12
  %84 = sext i8 %83 to i32
  %85 = icmp sge i32 %84, 48
  br i1 %85, label %86, label %92

86:                                               ; preds = %80
  %87 = load ptr, ptr %8, align 8, !tbaa !5
  %88 = getelementptr inbounds i8, ptr %87, i64 0
  %89 = load i8, ptr %88, align 1, !tbaa !12
  %90 = sext i8 %89 to i32
  %91 = icmp sle i32 %90, 57
  br label %92

92:                                               ; preds = %86, %80, %76
  %93 = phi i1 [ false, %80 ], [ false, %76 ], [ %91, %86 ]
  br i1 %93, label %94, label %124

94:                                               ; preds = %92
  %95 = load i64, ptr %11, align 8, !tbaa !10
  %96 = icmp ugt i64 %95, 1844674407370955161
  br i1 %96, label %97, label %98

97:                                               ; preds = %94
  store i32 0, ptr %4, align 4
  store i32 1, ptr %12, align 4
  br label %156

98:                                               ; preds = %94
  %99 = load i64, ptr %11, align 8, !tbaa !10
  %100 = mul i64 %99, 10
  store i64 %100, ptr %11, align 8, !tbaa !10
  %101 = load i64, ptr %11, align 8, !tbaa !10
  %102 = load ptr, ptr %8, align 8, !tbaa !5
  %103 = getelementptr inbounds i8, ptr %102, i64 0
  %104 = load i8, ptr %103, align 1, !tbaa !12
  %105 = sext i8 %104 to i32
  %106 = sub nsw i32 %105, 48
  %107 = sext i32 %106 to i64
  %108 = sub i64 -1, %107
  %109 = icmp ugt i64 %101, %108
  br i1 %109, label %110, label %111

110:                                              ; preds = %98
  store i32 0, ptr %4, align 4
  store i32 1, ptr %12, align 4
  br label %156

111:                                              ; preds = %98
  %112 = load ptr, ptr %8, align 8, !tbaa !5
  %113 = getelementptr inbounds i8, ptr %112, i64 0
  %114 = load i8, ptr %113, align 1, !tbaa !12
  %115 = sext i8 %114 to i32
  %116 = sub nsw i32 %115, 48
  %117 = sext i32 %116 to i64
  %118 = load i64, ptr %11, align 8, !tbaa !10
  %119 = add i64 %118, %117
  store i64 %119, ptr %11, align 8, !tbaa !10
  %120 = load ptr, ptr %8, align 8, !tbaa !5
  %121 = getelementptr inbounds nuw i8, ptr %120, i32 1
  store ptr %121, ptr %8, align 8, !tbaa !5
  %122 = load i64, ptr %9, align 8, !tbaa !10
  %123 = add i64 %122, 1
  store i64 %123, ptr %9, align 8, !tbaa !10
  br label %76, !llvm.loop !17

124:                                              ; preds = %92
  %125 = load i64, ptr %9, align 8, !tbaa !10
  %126 = load i64, ptr %6, align 8, !tbaa !10
  %127 = icmp ult i64 %125, %126
  br i1 %127, label %128, label %129

128:                                              ; preds = %124
  store i32 0, ptr %4, align 4
  store i32 1, ptr %12, align 4
  br label %156

129:                                              ; preds = %124
  %130 = load i32, ptr %10, align 4, !tbaa !15
  %131 = icmp ne i32 %130, 0
  br i1 %131, label %132, label %144

132:                                              ; preds = %129
  %133 = load i64, ptr %11, align 8, !tbaa !10
  %134 = icmp ugt i64 %133, -9223372036854775808
  br i1 %134, label %135, label %136

135:                                              ; preds = %132
  store i32 0, ptr %4, align 4
  store i32 1, ptr %12, align 4
  br label %156

136:                                              ; preds = %132
  %137 = load ptr, ptr %7, align 8, !tbaa !13
  %138 = icmp ne ptr %137, null
  br i1 %138, label %139, label %143

139:                                              ; preds = %136
  %140 = load i64, ptr %11, align 8, !tbaa !10
  %141 = sub i64 0, %140
  %142 = load ptr, ptr %7, align 8, !tbaa !13
  store i64 %141, ptr %142, align 8, !tbaa !10
  br label %143

143:                                              ; preds = %139, %136
  br label %155

144:                                              ; preds = %129
  %145 = load i64, ptr %11, align 8, !tbaa !10
  %146 = icmp ugt i64 %145, 9223372036854775807
  br i1 %146, label %147, label %148

147:                                              ; preds = %144
  store i32 0, ptr %4, align 4
  store i32 1, ptr %12, align 4
  br label %156

148:                                              ; preds = %144
  %149 = load ptr, ptr %7, align 8, !tbaa !13
  %150 = icmp ne ptr %149, null
  br i1 %150, label %151, label %154

151:                                              ; preds = %148
  %152 = load i64, ptr %11, align 8, !tbaa !10
  %153 = load ptr, ptr %7, align 8, !tbaa !13
  store i64 %152, ptr %153, align 8, !tbaa !10
  br label %154

154:                                              ; preds = %151, %148
  br label %155

155:                                              ; preds = %154, %143
  store i32 1, ptr %4, align 4
  store i32 1, ptr %12, align 4
  br label %156

156:                                              ; preds = %155, %147, %135, %128, %110, %97, %74, %49, %34, %19
  call void @llvm.lifetime.end.p0(i64 8, ptr %11) #10
  call void @llvm.lifetime.end.p0(i64 4, ptr %10) #10
  call void @llvm.lifetime.end.p0(i64 8, ptr %9) #10
  call void @llvm.lifetime.end.p0(i64 8, ptr %8) #10
  %157 = load i32, ptr %4, align 4
  ret i32 %157
}